; Function Attrs: nounwind sspstrong uwtable
define hidden i64 @rb_int_modulo(i64 noundef %0, i64 noundef %1) #2 {
  %3 = alloca [2 x i64], align 16
  %4 = and i64 %0, 1
  %.not = icmp eq i64 %4, 0
  br i1 %.not, label %7, label %5

5:                                                ; preds = %2
  %6 = tail call fastcc i64 @fix_mod(i64 noundef %0, i64 noundef %1)
  br label %23

7:                                                ; preds = %2
  %8 = icmp eq i64 %0, 0
  %9 = and i64 %0, 6
  %10 = icmp ne i64 %9, 0
  %11 = or i1 %8, %10
  br i1 %11, label %rbimpl_RB_TYPE_P_fastpath.exit.thread, label %rbimpl_RB_TYPE_P_fastpath.exit

rbimpl_RB_TYPE_P_fastpath.exit:                   ; preds = %7
  %12 = inttoptr i64 %0 to ptr
  %13 = load i64, ptr %12, align 8, !tbaa !11
  %14 = and i64 %13, 31
  %15 = icmp eq i64 %14, 10
  br i1 %15, label %16, label %rbimpl_RB_TYPE_P_fastpath.exit.thread

16:                                               ; preds = %rbimpl_RB_TYPE_P_fastpath.exit
  %17 = tail call i64 @rb_big_modulo(i64 noundef %0, i64 noundef %1) #26
  br label %23

rbimpl_RB_TYPE_P_fastpath.exit.thread:            ; preds = %7, %rbimpl_RB_TYPE_P_fastpath.exit
  call void @llvm.lifetime.start.p0(i64 16, ptr nonnull %3) #26
  store i64 3569, ptr %3, align 16, !tbaa !7
  %18 = getelementptr inbounds nuw i8, ptr %3, i64 8
  store i64 %0, ptr %18, align 8, !tbaa !7
  %19 = ptrtoint ptr %3 to i64
  %20 = call i64 @rb_exec_recursive_paired(ptr noundef nonnull @num_funcall_op_1, i64 noundef %1, i64 noundef %0, i64 noundef %19) #26
  call void @llvm.lifetime.end.p0(i64 16, ptr nonnull %3) #26
  %21 = call i64 (i64, i64, i32, ...) @rb_funcall(i64 noundef %1, i64 noundef 42, i32 noundef 1, i64 noundef %20) #26
  %22 = call i64 (i64, i64, i32, ...) @rb_funcall(i64 noundef %0, i64 noundef 45, i32 noundef 1, i64 noundef %21) #26
  br label %23

23:                                               ; preds = %rbimpl_RB_TYPE_P_fastpath.exit.thread, %16, %5
  %.0 = phi i64 [ %6, %5 ], [ %17, %16 ], [ %22, %rbimpl_RB_TYPE_P_fastpath.exit.thread ]
  ret i64 %.0
}